#include <math.h>
#include <stdio.h>
#include <stdlib.h>
#include <string.h>


int main()
{
	int S[300],a,b,c,i,j,k;
	for(i=0;i<300;i++)
		{
			scanf("%d",&S[i]);
			if (getchar()=='\n')
				break;
		};

	for(j=i+1;j<300;j++)
		{
			S[j]=S[j-1];
		}
	b=S[0];
	a=-32768;
	c=S[0];
	for(k=0;k<300;k++)
		{
		if(S[k]>b)
			{
			a=b;
			b=S[k];
			}
		if(S[k]<c)
			c=S[k];
		if(S[k]<b && a<S[k])
			a=S[k];
		}
	if (b!=c&&i!=0)
		printf("%d\n",a);
	else
		printf("No");
	
	return 0;
	
}