; ModuleID = '22/702.c'
source_filename = "22/702.c"
target datalayout = "e-m:e-p270:32:32-p271:32:32-p272:64:64-i64:64-f80:128-n8:16:32:64-S128"
target triple = "x86_64-pc-linux-gnu"

@.str = private unnamed_addr constant [3 x i8] c"%d\00", align 1
@.str.1 = private unnamed_addr constant [4 x i8] c"%d\0A\00", align 1
@.str.2 = private unnamed_addr constant [3 x i8] c"No\00", align 1

; Function Attrs: noinline nounwind uwtable
define dso_local i32 @main() #0 {
  %1 = alloca i32, align 4
  %2 = alloca [300 x i32], align 16
  %3 = alloca i32, align 4
  %4 = alloca i32, align 4
  %5 = alloca i32, align 4
  %6 = alloca i32, align 4
  %7 = alloca i32, align 4
  %8 = alloca i32, align 4
  store i32 0, i32* %1, align 4
  store i32 0, i32* %6, align 4
  br label %9

9:                                                ; preds = %21, %0
  %10 = load i32, i32* %6, align 4
  %11 = icmp slt i32 %10, 300
  br i1 %11, label %12, label %24

12:                                               ; preds = %9
  %13 = load i32, i32* %6, align 4
  %14 = sext i32 %13 to i64
  %15 = getelementptr inbounds [300 x i32], [300 x i32]* %2, i64 0, i64 %14
  %16 = call i32 (i8*, ...) @__isoc99_scanf(i8* getelementptr inbounds ([3 x i8], [3 x i8]* @.str, i64 0, i64 0), i32* %15)
  %17 = call i32 @getchar()
  %18 = icmp eq i32 %17, 10
  br i1 %18, label %19, label %20

19:                                               ; preds = %12
  br label %24

20:                                               ; preds = %12
  br label %21

21:                                               ; preds = %20
  %22 = load i32, i32* %6, align 4
  %23 = add nsw i32 %22, 1
  store i32 %23, i32* %6, align 4
  br label %9

24:                                               ; preds = %19, %9
  %25 = load i32, i32* %6, align 4
  %26 = add nsw i32 %25, 1
  store i32 %26, i32* %7, align 4
  br label %27

27:                                               ; preds = %39, %24
  %28 = load i32, i32* %7, align 4
  %29 = icmp slt i32 %28, 300
  br i1 %29, label %30, label %42

30:                                               ; preds = %27
  %31 = load i32, i32* %7, align 4
  %32 = sub nsw i32 %31, 1
  %33 = sext i32 %32 to i64
  %34 = getelementptr inbounds [300 x i32], [300 x i32]* %2, i64 0, i64 %33
  %35 = load i32, i32* %34, align 4
  %36 = load i32, i32* %7, align 4
  %37 = sext i32 %36 to i64
  %38 = getelementptr inbounds [300 x i32], [300 x i32]* %2, i64 0, i64 %37
  store i32 %35, i32* %38, align 4
  br label %39

39:                                               ; preds = %30
  %40 = load i32, i32* %7, align 4
  %41 = add nsw i32 %40, 1
  store i32 %41, i32* %7, align 4
  br label %27

42:                                               ; preds = %27
  %43 = getelementptr inbounds [300 x i32], [300 x i32]* %2, i64 0, i64 0
  %44 = load i32, i32* %43, align 16
  store i32 %44, i32* %4, align 4
  store i32 -32768, i32* %3, align 4
  %45 = getelementptr inbounds [300 x i32], [300 x i32]* %2, i64 0, i64 0
  %46 = load i32, i32* %45, align 16
  store i32 %46, i32* %5, align 4
  store i32 0, i32* %8, align 4
  br label %47

47:                                               ; preds = %95, %42
  %48 = load i32, i32* %8, align 4
  %49 = icmp slt i32 %48, 300
  br i1 %49, label %50, label %98

50:                                               ; preds = %47
  %51 = load i32, i32* %8, align 4
  %52 = sext i32 %51 to i64
  %53 = getelementptr inbounds [300 x i32], [300 x i32]* %2, i64 0, i64 %52
  %54 = load i32, i32* %53, align 4
  %55 = load i32, i32* %4, align 4
  %56 = icmp sgt i32 %54, %55
  br i1 %56, label %57, label %63

57:                                               ; preds = %50
  %58 = load i32, i32* %4, align 4
  store i32 %58, i32* %3, align 4
  %59 = load i32, i32* %8, align 4
  %60 = sext i32 %59 to i64
  %61 = getelementptr inbounds [300 x i32], [300 x i32]* %2, i64 0, i64 %60
  %62 = load i32, i32* %61, align 4
  store i32 %62, i32* %4, align 4
  br label %63

63:                                               ; preds = %57, %50
  %64 = load i32, i32* %8, align 4
  %65 = sext i32 %64 to i64
  %66 = getelementptr inbounds [300 x i32], [300 x i32]* %2, i64 0, i64 %65
  %67 = load i32, i32* %66, align 4
  %68 = load i32, i32* %5, align 4
  %69 = icmp slt i32 %67, %68
  br i1 %69, label %70, label %75

70:                                               ; preds = %63
  %71 = load i32, i32* %8, align 4
  %72 = sext i32 %71 to i64
  %73 = getelementptr inbounds [300 x i32], [300 x i32]* %2, i64 0, i64 %72
  %74 = load i32, i32* %73, align 4
  store i32 %74, i32* %5, align 4
  br label %75

75:                                               ; preds = %70, %63
  %76 = load i32, i32* %8, align 4
  %77 = sext i32 %76 to i64
  %78 = getelementptr inbounds [300 x i32], [300 x i32]* %2, i64 0, i64 %77
  %79 = load i32, i32* %78, align 4
  %80 = load i32, i32* %4, align 4
  %81 = icmp slt i32 %79, %80
  br i1 %81, label %82, label %94

82:                                               ; preds = %75
  %83 = load i32, i32* %3, align 4
  %84 = load i32, i32* %8, align 4
  %85 = sext i32 %84 to i64
  %86 = getelementptr inbounds [300 x i32], [300 x i32]* %2, i64 0, i64 %85
  %87 = load i32, i32* %86, align 4
  %88 = icmp slt i32 %83, %87
  br i1 %88, label %89, label %94

89:                                               ; preds = %82
  %90 = load i32, i32* %8, align 4
  %91 = sext i32 %90 to i64
  %92 = getelementptr inbounds [300 x i32], [300 x i32]* %2, i64 0, i64 %91
  %93 = load i32, i32* %92, align 4
  store i32 %93, i32* %3, align 4
  br label %94

94:                                               ; preds = %89, %82, %75
  br label %95

95:                                               ; preds = %94
  %96 = load i32, i32* %8, align 4
  %97 = add nsw i32 %96, 1
  store i32 %97, i32* %8, align 4
  br label %47

98:                                               ; preds = %47
  %99 = load i32, i32* %4, align 4
  %100 = load i32, i32* %5, align 4
  %101 = icmp ne i32 %99, %100
  br i1 %101, label %102, label %108

102:                                              ; preds = %98
  %103 = load i32, i32* %6, align 4
  %104 = icmp ne i32 %103, 0
  br i1 %104, label %105, label %108

105:                                              ; preds = %102
  %106 = load i32, i32* %3, align 4
  %107 = call i32 (i8*, ...) @printf(i8* getelementptr inbounds ([4 x i8], [4 x i8]* @.str.1, i64 0, i64 0), i32 %106)
  br label %110

108:                                              ; preds = %102, %98
  %109 = call i32 (i8*, ...) @printf(i8* getelementptr inbounds ([3 x i8], [3 x i8]* @.str.2, i64 0, i64 0))
  br label %110

110:                                              ; preds = %108, %105
  ret i32 0
}

declare dso_local i32 @__isoc99_scanf(i8*, ...) #1

declare dso_local i32 @getchar() #1

declare dso_local i32 @printf(i8*, ...) #1


!llvm.module.flags = !{!0}
!llvm.ident = !{!1}

!0 = !{i32 1, !"wchar_size", i32 4}
!1 = !{!"clang version 10.0.0-4ubuntu1 "}
